target datalayout = "e-m:e-p270:32:32-p271:32:32-p272:64:64-i64:64-i128:128-f80:128-n8:16:32:64-S128"
target triple = "x86_64-pc-linux-gnu"

%struct.ma_allocation_callbacks = type { ptr, ptr, ptr, ptr }
%struct.ma_rb = type { ptr, i32, i32, i32, i32, i32, i8, i8, %struct.ma_allocation_callbacks }

; Function Attrs: alwaysinline nounwind uwtable
define internal i32 @ma_rb__extract_offset_loop_flag(i32 noundef %0) #7 {
  %2 = alloca i32, align 4
  store i32 %0, ptr %2, align 4, !tbaa !8
  %3 = load i32, ptr %2, align 4, !tbaa !8
  %4 = and i32 %3, -2147483648
  ret i32 %4
}

; Function Attrs: alwaysinline nounwind uwtable
define internal i32 @ma_rb__extract_offset_in_bytes(i32 noundef %0) #7 {
  %2 = alloca i32, align 4
  store i32 %0, ptr %2, align 4, !tbaa !8
  %3 = load i32, ptr %2, align 4, !tbaa !8
  %4 = and i32 %3, 2147483647
  ret i32 %4
}

; Function Attrs: alwaysinline nounwind uwtable
define internal void @ma_rb__deconstruct_offset(i32 noundef %0, ptr noundef %1, ptr noundef %2) #7 {
  %4 = alloca i32, align 4
  %5 = alloca ptr, align 8
  %6 = alloca ptr, align 8
  store i32 %0, ptr %4, align 4, !tbaa !8
  store ptr %1, ptr %5, align 8, !tbaa !3
  store ptr %2, ptr %6, align 8, !tbaa !3
  %7 = load i32, ptr %4, align 4, !tbaa !8
  %8 = call i32 @ma_rb__extract_offset_in_bytes(i32 noundef %7)
  %9 = load ptr, ptr %5, align 8, !tbaa !3
  store i32 %8, ptr %9, align 4, !tbaa !8
  %10 = load i32, ptr %4, align 4, !tbaa !8
  %11 = call i32 @ma_rb__extract_offset_loop_flag(i32 noundef %10)
  %12 = load ptr, ptr %6, align 8, !tbaa !3
  store i32 %11, ptr %12, align 4, !tbaa !8
  ret void
}

; Function Attrs: nounwind uwtable
define i32 @ma_rb_pointer_distance(ptr noundef %0) #0 {
  %2 = alloca i32, align 4
  %3 = alloca ptr, align 8
  %4 = alloca i32, align 4
  %5 = alloca i32, align 4
  %6 = alloca i32, align 4
  %7 = alloca i32, align 4
  %8 = alloca i32, align 4
  %9 = alloca i32, align 4
  %10 = alloca i32, align 4
  %11 = alloca i32, align 4
  %12 = alloca i32, align 4
  store ptr %0, ptr %3, align 8, !tbaa !25
  call void @llvm.lifetime.start.p0(i64 4, ptr %4) #16
  call void @llvm.lifetime.start.p0(i64 4, ptr %5) #16
  call void @llvm.lifetime.start.p0(i64 4, ptr %6) #16
  call void @llvm.lifetime.start.p0(i64 4, ptr %7) #16
  call void @llvm.lifetime.start.p0(i64 4, ptr %8) #16
  call void @llvm.lifetime.start.p0(i64 4, ptr %9) #16
  %13 = load ptr, ptr %3, align 8, !tbaa !25
  %14 = icmp eq ptr %13, null
  br i1 %14, label %15, label %16

15:                                               ; preds = %1
  store i32 0, ptr %2, align 4
  store i32 1, ptr %10, align 4
  br label %42

16:                                               ; preds = %1
  %17 = load ptr, ptr %3, align 8, !tbaa !25
  %18 = getelementptr inbounds nuw %struct.ma_rb, ptr %17, i32 0, i32 4
  %19 = load atomic i32, ptr %18 seq_cst, align 4
  store i32 %19, ptr %11, align 4
  %20 = load i32, ptr %11, align 4, !tbaa !8
  store i32 %20, ptr %4, align 4, !tbaa !8
  %21 = load i32, ptr %4, align 4, !tbaa !8
  call void @ma_rb__deconstruct_offset(i32 noundef %21, ptr noundef %5, ptr noundef %6)
  %22 = load ptr, ptr %3, align 8, !tbaa !25
  %23 = getelementptr inbounds nuw %struct.ma_rb, ptr %22, i32 0, i32 5
  %24 = load atomic i32, ptr %23 seq_cst, align 8
  store i32 %24, ptr %12, align 4
  %25 = load i32, ptr %12, align 4, !tbaa !8
  store i32 %25, ptr %7, align 4, !tbaa !8
  %26 = load i32, ptr %7, align 4, !tbaa !8
  call void @ma_rb__deconstruct_offset(i32 noundef %26, ptr noundef %8, ptr noundef %9)
  %27 = load i32, ptr %6, align 4, !tbaa !8
  %28 = load i32, ptr %9, align 4, !tbaa !8
  %29 = icmp eq i32 %27, %28
  br i1 %29, label %30, label %34

30:                                               ; preds = %16
  %31 = load i32, ptr %8, align 4, !tbaa !8
  %32 = load i32, ptr %5, align 4, !tbaa !8
  %33 = sub i32 %31, %32
  store i32 %33, ptr %2, align 4
  store i32 1, ptr %10, align 4
  br label %42

34:                                               ; preds = %16
  %35 = load i32, ptr %8, align 4, !tbaa !8
  %36 = load ptr, ptr %3, align 8, !tbaa !25
  %37 = getelementptr inbounds nuw %struct.ma_rb, ptr %36, i32 0, i32 1
  %38 = load i32, ptr %37, align 8, !tbaa !844
  %39 = load i32, ptr %5, align 4, !tbaa !8
  %40 = sub i32 %38, %39
  %41 = add i32 %35, %40
  store i32 %41, ptr %2, align 4
  store i32 1, ptr %10, align 4
  br label %42

42:                                               ; preds = %34, %30, %15
  call void @llvm.lifetime.end.p0(i64 4, ptr %9) #16
  call void @llvm.lifetime.end.p0(i64 4, ptr %8) #16
  call void @llvm.lifetime.end.p0(i64 4, ptr %7) #16
  call void @llvm.lifetime.end.p0(i64 4, ptr %6) #16
  call void @llvm.lifetime.end.p0(i64 4, ptr %5) #16
  call void @llvm.lifetime.end.p0(i64 4, ptr %4) #16
  %43 = load i32, ptr %2, align 4
  ret i32 %43
}

; Function Attrs: nounwind uwtable
define i64 @ma_rb_get_subbuffer_size(ptr noundef %0) #0 {
  %2 = alloca i64, align 8
  %3 = alloca ptr, align 8
  store ptr %0, ptr %3, align 8, !tbaa !25
  %4 = load ptr, ptr %3, align 8, !tbaa !25
  %5 = icmp eq ptr %4, null
  br i1 %5, label %6, label %7

6:                                                ; preds = %1
  store i64 0, ptr %2, align 8
  br label %12

7:                                                ; preds = %1
  %8 = load ptr, ptr %3, align 8, !tbaa !25
  %9 = getelementptr inbounds nuw %struct.ma_rb, ptr %8, i32 0, i32 1
  %10 = load i32, ptr %9, align 8, !tbaa !844
  %11 = zext i32 %10 to i64
  store i64 %11, ptr %2, align 8
  br label %12

12:                                               ; preds = %7, %6
  %13 = load i64, ptr %2, align 8
  ret i64 %13
}

; Function Attrs: nounwind uwtable
define i32 @ma_rb_available_write(ptr noundef %0) #0 {
  %2 = alloca i32, align 4
  %3 = alloca ptr, align 8
  store ptr %0, ptr %3, align 8, !tbaa !25
  %4 = load ptr, ptr %3, align 8, !tbaa !25
  %5 = icmp eq ptr %4, null
  br i1 %5, label %6, label %7

6:                                                ; preds = %1
  store i32 0, ptr %2, align 4
  br label %15

7:                                                ; preds = %1
  %8 = load ptr, ptr %3, align 8, !tbaa !25
  %9 = call i64 @ma_rb_get_subbuffer_size(ptr noundef %8)
  %10 = load ptr, ptr %3, align 8, !tbaa !25
  %11 = call i32 @ma_rb_pointer_distance(ptr noundef %10)
  %12 = sext i32 %11 to i64
  %13 = sub i64 %9, %12
  %14 = trunc i64 %13 to i32
  store i32 %14, ptr %2, align 4
  br label %15

15:                                               ; preds = %7, %6
  %16 = load i32, ptr %2, align 4
  ret i32 %16
}