; Function Attrs: mustprogress nofree norecurse nounwind willreturn memory(argmem: readwrite) uwtable
define i32 @ma_rb_available_write(ptr noundef readonly captures(address_is_null) %0) local_unnamed_addr #26 {
  %2 = icmp eq ptr %0, null
  br i1 %2, label %21, label %3

3:                                                ; preds = %1
  %4 = getelementptr inbounds nuw i8, ptr %0, i64 8
  %5 = load i32, ptr %4, align 8, !tbaa !345
  %6 = getelementptr inbounds nuw i8, ptr %0, i64 20
  %7 = load atomic i32, ptr %6 seq_cst, align 4
  %8 = and i32 %7, 2147483647
  %9 = getelementptr inbounds nuw i8, ptr %0, i64 24
  %10 = load atomic i32, ptr %9 seq_cst, align 8
  %11 = and i32 %10, 2147483647
  %12 = xor i32 %10, %7
  %13 = icmp sgt i32 %12, -1
  br i1 %13, label %14, label %16

14:                                               ; preds = %3
  %15 = sub nsw i32 %11, %8
  br label %ma_rb_pointer_distance.exit

16:                                               ; preds = %3
  %17 = load i32, ptr %4, align 8, !tbaa !345
  %18 = sub nsw i32 %11, %8
  %19 = add i32 %18, %17
  br label %ma_rb_pointer_distance.exit

ma_rb_pointer_distance.exit:                      ; preds = %14, %16
  %.0.i4 = phi i32 [ %15, %14 ], [ %19, %16 ]
  %20 = sub i32 %5, %.0.i4
  br label %21

21:                                               ; preds = %1, %ma_rb_pointer_distance.exit
  %.0 = phi i32 [ %20, %ma_rb_pointer_distance.exit ], [ 0, %1 ]
  ret i32 %.0
}